target datalayout = "e-m:e-p270:32:32-p271:32:32-p272:64:64-i64:64-i128:128-f80:128-n8:16:32:64-S128"
target triple = "x86_64-pc-linux-gnu"

%struct.ossl_quic_frame_stream_st = type { i64, i64, i64, ptr, i8 }
%struct.ossl_qtx_iovec_st = type { ptr, i64 }

; Function Attrs: nounwind uwtable
define i32 @ossl_quic_sstream_has_pending(ptr noundef %0) #0 {
  %2 = alloca ptr, align 8
  %3 = alloca %struct.ossl_quic_frame_stream_st, align 8
  %4 = alloca [2 x %struct.ossl_qtx_iovec_st], align 16
  %5 = alloca i64, align 8
  store ptr %0, ptr %2, align 8, !tbaa !7
  call void @llvm.lifetime.start.p0(i64 40, ptr %3) #6
  call void @llvm.lifetime.start.p0(i64 32, ptr %4) #6
  call void @llvm.lifetime.start.p0(i64 8, ptr %5) #6
  store i64 2, ptr %5, align 8, !tbaa !3
  %6 = load ptr, ptr %2, align 8, !tbaa !7
  %7 = getelementptr inbounds [2 x %struct.ossl_qtx_iovec_st], ptr %4, i64 0, i64 0
  %8 = call i32 @ossl_quic_sstream_get_stream_frame(ptr noundef %6, i64 noundef 0, ptr noundef %3, ptr noundef %7, ptr noundef %5)
  call void @llvm.lifetime.end.p0(i64 8, ptr %5) #6
  call void @llvm.lifetime.end.p0(i64 32, ptr %4) #6
  call void @llvm.lifetime.end.p0(i64 40, ptr %3) #6
  ret i32 %8
}