; Function Attrs: nofree norecurse nosync nounwind memory(read, argmem: readwrite, inaccessiblemem: none) uwtable
define range(i32 0, 2) i32 @ossl_quic_sstream_has_pending(ptr noundef readonly captures(none) %0) local_unnamed_addr #4 {
  %2 = alloca %struct.ossl_quic_frame_stream_st, align 8
  %3 = alloca [2 x %struct.ossl_qtx_iovec_st], align 16
  %4 = alloca i64, align 8
  call void @llvm.lifetime.start.p0(i64 40, ptr nonnull %2) #12
  call void @llvm.lifetime.start.p0(i64 32, ptr nonnull %3) #12
  call void @llvm.lifetime.start.p0(i64 8, ptr nonnull %4) #12
  store i64 2, ptr %4, align 8, !tbaa !12
  %5 = call i32 @ossl_quic_sstream_get_stream_frame(ptr noundef %0, i64 noundef 0, ptr noundef nonnull %2, ptr noundef nonnull %3, ptr noundef nonnull %4)
  call void @llvm.lifetime.end.p0(i64 8, ptr nonnull %4) #12
  call void @llvm.lifetime.end.p0(i64 32, ptr nonnull %3) #12
  call void @llvm.lifetime.end.p0(i64 40, ptr nonnull %2) #12
  ret i32 %5
}